; Function Attrs: nounwind uwtable
define dso_local noundef ptr @list_append_unique(ptr noundef %0, ptr noundef %1) local_unnamed_addr #0 {
  %3 = getelementptr inbounds nuw i8, ptr %0, i64 4
  %.not.i = icmp eq ptr %0, null
  br i1 %.not.i, label %.loopexit, label %.lr.ph.i

.lr.ph.i:                                         ; preds = %2
  %4 = getelementptr inbounds nuw i8, ptr %0, i64 16
  %5 = load i32, ptr %3, align 4
  %6 = icmp sgt i32 %5, 0
  br i1 %6, label %.lr.ph23.i, label %.loopexit

7:                                                ; preds = %.lr.ph23.i
  %indvars.iv.next.i = add nuw nsw i64 %indvars.iv.i, 1
  %8 = load i32, ptr %3, align 4
  %9 = sext i32 %8 to i64
  %10 = icmp slt i64 %indvars.iv.next.i, %9
  br i1 %10, label %.lr.ph23.i, label %.loopexit

.lr.ph23.i:                                       ; preds = %.lr.ph.i, %7
  %indvars.iv.i = phi i64 [ %indvars.iv.next.i, %7 ], [ 0, %.lr.ph.i ]
  %11 = load ptr, ptr %4, align 8
  %12 = getelementptr inbounds nuw %union.ListCell, ptr %11, i64 %indvars.iv.i
  %13 = load ptr, ptr %12, align 8
  %14 = tail call zeroext i1 @equal(ptr noundef %13, ptr noundef %1) #9
  br i1 %14, label %list_member.exit, label %7

.loopexit:                                        ; preds = %7, %2, %.lr.ph.i
  %15 = tail call ptr @lappend(ptr noundef %0, ptr noundef %1)
  br label %list_member.exit

list_member.exit:                                 ; preds = %.lr.ph23.i, %.loopexit
  %.0 = phi ptr [ %15, %.loopexit ], [ %0, %.lr.ph23.i ]
  ret ptr %.0
}